-----BEGIN CERTIFICATE-----
MIIFUzCCAzugAwIBAgIEWZiZCTANBgkqhkiG9w0BAQsFADA7MQswCQYDVQQGEwJD
QTEVMBMGA1UECgwM5a6d5aGU6Z2i5p2/MRUwEwYDVQQDDAzlrp3loZTpnaLmnb8w
HhcNMjQwOTAyMDkyOTI4WhcNMzQwODMxMDkyOTI4WjBBMQswCQYDVQQGEwJDTjEY
MBYGA1UECgwPMjE5LjE0Ni4yNTUuMjAyMRgwFgYDVQQDDA8yMTkuMTQ2LjI1NS4y
MDIwggIiMA0GCSqGSIb3DQEBAQUAA4ICDwAwggIKAoICAQC7NAGvGmBc3axdhz2f
7MNZ0wM4Hb3nlQkoHvzMGsmyBZ60OKrudYTgU5uprgfzLtB7xufgs8/ceQmvYm9b
TLtDbrEErZCPfApmLzVFEesr2DWw+75kkLbTpCtrgEW7+V8HFNXkF0uedieWc9zS
t55gEGJ0aYgD7sWDLDS17ZA85T9YIlLh/FaV2NfCNwVwGbDCIfmCZOiBFrFFtr+y
/peVWRU6WxnvPUjFgrOcUEX+3DU1+zPtbt2f/VNeaDJfedUDYUFpzcYc67nz80x9
WgQvmpnTz/xKAO9yrex00AzYITRPub8/t38zySUsRSqGugaMItNKl0oxv7UvlFNT
jbDC3qIXvzL0afXp/pk67bob/IlvUzjBchhr/F9QxL9U72XZqidzrHZ4+05WLjl2
n9/5U4RodcCPS/WvL3VoAFyyeykOCDTBJq5wlrsQ9zlJQmmeffG/4E9MgqAsdbTR
FoGsoEO3zwICiavV1jo//yxytUpjVUv47bBqUbHplsj4zF3fPL9Xy0sWEdpJMYDn
EuytyxpstOSm2i9MRBXrlw+oowvT7EMiNXCT/dKQtOIU544YEFrS9bMhefro7J07
OG7LqVEpVoP7y86yKk6NIhANjJsHaMeP3kK+uS7Ka3n38zoB9ibeU++vCav417XT
4TFGmzinmw0qqVObVMLBVDW9ywIDAQABo1kwVzAVBgNVHREEDjAMhwTbkv/KhwTA
qKOAMB0GA1UdDgQWBBSc3u2bq0Me91qympJrq9gWdgkxaDAfBgNVHSMEGDAWgBRa
ym/LCMyAm89b5+D1YbAPS6o6+zANBgkqhkiG9w0BAQsFAAOCAgEAkwId61M4RAax
NDeDS5bDHM/hc5v4fd5CKpLciPLjlHbO4KV8GGpGs6Xyy0DSHxRsRv3rveezgk1X
gHkg/3334sjf/9IRhF8w+ZdkGRYWm2COTgnFVq2+TKhyFsTtSsXQpnS+YcNVyNly
nD4GESlgfE3TD6v4XxRSmUxsE1O8inCKrgC5g7QBqd5qBOLUaWD+pNqiYsdrVY4f
znwaSNsWylmq9tVMhiZWLrJswHbEPfu+CQsd8ay8QT8fN4VLopDLaivpn+apucS8
ewU0At72QUXXRrQtZ/6WLG/+6QAV9IftLMqxu1Us/Lx2mDWFIQrkdkuJ/kZ3QNEv
y4x/GtQaV5+cxoeTojHTvwO/slgMOwuws1sQ4r2CPytHfVaUhx+8iOaCSBWLlbd0
EozzCqAAItj7dJ2ip7HbQXg0A5Nm0UFrX7+eMPr3ulDvJjTVN5qt68EqKfIjQkA/
t6YnCuUIClCs40DWIkCbpJKfbU1GMjOTDozWy/Ybewctbmb9TjyvQ18xTxMv2aSv
DkVBKYQ3OdxL4XDnWbFHhdNYRwRaDSb4gwO4VyFvpZpRA9g1s88QmdFxAtbxyFrU
rEJbzYbdbC9gMviaUBZvhK8NdJlZ3LKPCHufR+rhNy8BMb9lApL9HK4lVo8nchg2
Kqu67+CfPv+mvp13XnKqJQArb82TW9E=
-----END CERTIFICATE-----
Certificate:
    Data:
        Version: 3 (0x2)
        Serial Number: 909658232 (0x36384878)
        Signature Algorithm: sha256WithRSAEncryption
        Issuer: CN=\xE5\xA0\xA1\xE5\xA1\x94, O=\xE5\xA0\xA1\xE5\xA1\x94, C=CN
        Validity
            Not Before: Dec  8 01:10:03 2023 GMT
            Not After : Dec  5 01:10:03 2033 GMT
        Subject: C=CA, O=\xE5\xAE\x9D\xE5\xA1\x94\xE9\x9D\xA2\xE6\x9D\xBF, CN=\xE5\xAE\x9D\xE5\xA1\x94\xE9\x9D\xA2\xE6\x9D\xBF
        Subject Public Key Info:
            Public Key Algorithm: rsaEncryption
                Public-Key: (4096 bit)
                Modulus:
                    00:98:c3:13:11:c5:69:c6:62:55:96:60:7a:b0:45:
                    2c:da:61:5b:84:53:bb:01:fa:b6:68:88:8b:b8:6d:
                    21:aa:98:41:82:45:7b:4f:c3:3f:c1:87:c5:22:c9:
                    ff:de:fe:70:d3:a7:b7:ad:5f:af:11:b3:8f:cb:69:
                    af:6a:c3:9a:fb:8e:2e:db:25:5d:25:16:ca:b7:0c:
                    13:5b:7c:ce:21:16:b4:a4:a1:37:1f:bc:20:95:62:
                    b2:8b:f7:b5:70:85:6f:ca:55:e8:0e:86:14:58:24:
                    3a:9a:90:28:e2:32:1a:e6:9a:34:99:4b:49:84:2c:
                    9f:75:1c:01:5a:f5:26:68:53:b8:f6:b7:42:33:dd:
                    ec:86:dc:1a:71:ee:5c:49:29:85:61:ab:44:23:8c:
                    9a:19:25:de:6c:24:64:5e:64:a1:c4:a8:0d:6d:db:
                    d2:68:7b:b6:7c:cf:67:e2:f5:68:6e:99:68:1a:70:
                    b7:4b:7a:c9:c2:5f:b9:19:2e:c7:c3:6b:12:08:9c:
                    ab:e3:1c:bc:89:95:c1:7e:94:6e:20:49:1e:e9:cc:
                    4a:62:15:6e:b0:a3:df:1c:1c:44:a9:f3:a3:ed:2e:
                    9a:28:2a:20:61:a9:bf:b1:fa:b2:0f:b2:ee:71:44:
                    93:70:8c:37:16:90:8e:e6:3a:82:b7:c6:b3:66:f7:
                    38:fa:17:78:f7:21:b9:57:68:0e:a2:a8:a6:b1:7a:
                    bd:56:03:17:28:27:47:53:c8:b9:ec:1f:48:fc:56:
                    22:72:6d:55:8b:d7:aa:4b:cd:38:67:f7:a9:9e:69:
                    7c:00:4c:4b:88:35:e9:ac:f7:1a:38:f3:0c:7d:46:
                    b5:1d:b8:0b:3a:b1:c9:ee:90:00:79:0e:47:69:46:
                    12:8f:f3:9f:8f:d9:35:02:27:1c:78:27:98:df:fe:
                    6e:a9:e8:52:fa:cc:a3:25:12:4e:2f:ca:7d:bf:82:
                    59:1a:ed:fc:c2:d8:65:c2:46:fb:e9:38:50:04:1f:
                    79:7f:ad:52:90:b8:92:e9:30:fe:a5:64:12:db:61:
                    b6:3d:78:1e:9d:07:10:eb:7a:07:58:d8:af:4b:8a:
                    56:4e:7d:de:e6:4a:01:05:6c:a9:50:18:bd:3a:da:
                    eb:fe:70:c9:a1:8c:09:94:84:97:19:35:b1:e0:78:
                    b2:d1:c7:bf:b9:a4:12:ff:3d:2f:26:08:6b:8b:c1:
                    bf:4b:73:27:17:89:fe:72:d9:56:1c:57:d3:d4:be:
                    c7:92:f0:38:10:d3:77:65:b0:1f:9c:eb:61:16:ef:
                    de:ed:46:7a:7a:3b:00:57:ae:76:f0:8d:cd:18:fb:
                    5d:51:40:c9:04:55:03:7b:25:57:4e:26:6e:c1:8f:
                    37:b4:8d
                Exponent: 65537 (0x10001)
        X509v3 extensions:
            X509v3 Subject Key Identifier: 
                5A:CA:6F:CB:08:CC:80:9B:CF:5B:E7:E0:F5:61:B0:0F:4B:AA:3A:FB
            X509v3 Authority Key Identifier: 
                CA:0D:D5:60:FC:D7:08:26:DB:C7:A7:1A:F4:34:6E:C2:9E:95:42:C0
            X509v3 Basic Constraints: 
                CA:TRUE
    Signature Algorithm: sha256WithRSAEncryption
    Signature Value:
        2f:69:1d:27:7b:a4:d8:1b:ec:10:ab:46:ec:cb:c4:3d:e1:98:
        2d:06:63:77:74:6a:fc:4a:f8:35:c0:b0:ae:84:05:7b:98:58:
        a7:ce:28:7e:f0:95:a6:cb:03:6f:f1:30:e9:e9:0d:fc:77:9a:
        2d:dd:5d:9b:fe:0e:ca:3b:b2:c9:b0:f1:c7:8b:26:4c:e9:48:
        09:3f:bc:be:42:de:db:9e:51:f5:b3:9d:51:c4:41:9e:35:f9:
        3e:66:ca:ef:f8:cb:a3:50:52:1e:2d:c8:d2:b4:94:dc:e5:70:
        80:02:33:00:a1:92:97:1a:05:a5:fd:5e:57:09:11:6d:2a:6d:
        fc:0d:b3:ce:d8:09:99:7d:de:a4:34:b4:7d:70:fe:56:ae:8a:
        8d:d1:95:80:92:dd:83:95:ae:7a:52:a7:2e:b9:4c:f3:c6:87:
        a0:c3:5d:68:25:68:d8:15:07:6b:3a:31:a7:85:d2:0a:0c:04:
        63:57:3a:f5:e4:ce:07:22:12:0e:9c:3b:73:34:44:6d:c5:d7:
        7a:59:75:2d:a9:8d:68:39:89:57:11:1f:c3:7a:39:fd:ed:6a:
        87:43:d6:5a:e2:cd:70:5b:24:61:70:5b:d4:44:98:1f:7a:66:
        0d:1d:a0:2f:e1:37:05:6d:61:56:fb:12:d8:82:bb:87:50:d3:
        30:aa:36:38:0b:a8:a4:01:18:e5:81:fa:f0:2e:99:9d:a8:4a:
        77:52:92:fb:c6:fb:93:1b:11:e5:3e:ea:2e:03:5a:9b:54:96:
        35:4c:11:44:c3:ab:74:fc:1e:14:38:ef:03:5e:49:ba:54:57:
        b7:46:94:42:94:23:85:40:e6:ec:9d:6b:3f:ce:d1:8a:a3:cb:
        75:e4:ac:30:20:74:12:61:12:f4:90:eb:8e:a7:4e:69:dd:15:
        b9:90:31:00:7c:b9:23:6e:88:e3:43:a1:aa:50:6d:38:11:3e:
        62:b2:49:0b:8a:07:99:31:ec:90:82:ac:b9:f8:ac:31:7a:7d:
        25:d3:00:ce:81:2c:dc:56:fa:06:16:9c:f6:c2:ac:95:1f:d9:
        ef:1d:89:ad:9d:d0:77:f5:f0:af:bc:e6:98:3d:ce:f0:d6:f8:
        d4:11:c9:2b:4f:6b:b2:ed:a8:00:0b:12:b9:4e:79:bf:b7:45:
        bd:45:74:d7:c0:49:70:3d:80:e1:4f:6b:dc:fa:22:f2:72:22:
        8e:ea:16:cd:5a:1e:37:4c:21:6d:14:ef:73:cd:e4:40:b6:9b:
        66:45:d7:e8:f2:64:74:fc:ad:d6:a9:4e:d9:07:cf:5f:c7:f1:
        52:04:3c:e5:31:04:fd:44:6a:d8:33:39:fe:76:95:72:c0:27:
        b9:4e:a3:38:49:d1:1f:a3
-----BEGIN CERTIFICATE-----
MIIFODCCAyCgAwIBAgIENjhIeDANBgkqhkiG9w0BAQsFADAvMQ8wDQYDVQQDDAbl
oKHloZQxDzANBgNVBAoMBuWgoeWhlDELMAkGA1UEBhMCQ04wHhcNMjMxMjA4MDEx
MDAzWhcNMzMxMjA1MDExMDAzWjA7MQswCQYDVQQGEwJDQTEVMBMGA1UECgwM5a6d
5aGU6Z2i5p2/MRUwEwYDVQQDDAzlrp3loZTpnaLmnb8wggIiMA0GCSqGSIb3DQEB
AQUAA4ICDwAwggIKAoICAQCYwxMRxWnGYlWWYHqwRSzaYVuEU7sB+rZoiIu4bSGq
mEGCRXtPwz/Bh8Uiyf/e/nDTp7etX68Rs4/Laa9qw5r7ji7bJV0lFsq3DBNbfM4h
FrSkoTcfvCCVYrKL97VwhW/KVegOhhRYJDqakCjiMhrmmjSZS0mELJ91HAFa9SZo
U7j2t0Iz3eyG3Bpx7lxJKYVhq0QjjJoZJd5sJGReZKHEqA1t29Joe7Z8z2fi9Whu
mWgacLdLesnCX7kZLsfDaxIInKvjHLyJlcF+lG4gSR7pzEpiFW6wo98cHESp86Pt
LpooKiBhqb+x+rIPsu5xRJNwjDcWkI7mOoK3xrNm9zj6F3j3IblXaA6iqKaxer1W
AxcoJ0dTyLnsH0j8ViJybVWL16pLzThn96meaXwATEuINems9xo48wx9RrUduAs6
scnukAB5DkdpRhKP85+P2TUCJxx4J5jf/m6p6FL6zKMlEk4vyn2/glka7fzC2GXC
RvvpOFAEH3l/rVKQuJLpMP6lZBLbYbY9eB6dBxDregdY2K9LilZOfd7mSgEFbKlQ
GL062uv+cMmhjAmUhJcZNbHgeLLRx7+5pBL/PS8mCGuLwb9LcycXif5y2VYcV9PU
vseS8DgQ03dlsB+c62EW797tRnp6OwBXrnbwjc0Y+11RQMkEVQN7JVdOJm7Bjze0
jQIDAQABo1AwTjAdBgNVHQ4EFgQUWspvywjMgJvPW+fg9WGwD0uqOvswHwYDVR0j
BBgwFoAUyg3VYPzXCCbbx6ca9DRuwp6VQsAwDAYDVR0TBAUwAwEB/zANBgkqhkiG
9w0BAQsFAAOCAgEAL2kdJ3uk2BvsEKtG7MvEPeGYLQZjd3Rq/Er4NcCwroQFe5hY
p84ofvCVpssDb/Ew6ekN/HeaLd1dm/4OyjuyybDxx4smTOlICT+8vkLe255R9bOd
UcRBnjX5PmbK7/jLo1BSHi3I0rSU3OVwgAIzAKGSlxoFpf1eVwkRbSpt/A2zztgJ
mX3epDS0fXD+Vq6KjdGVgJLdg5WuelKnLrlM88aHoMNdaCVo2BUHazoxp4XSCgwE
Y1c69eTOByISDpw7czREbcXXell1LamNaDmJVxEfw3o5/e1qh0PWWuLNcFskYXBb
1ESYH3pmDR2gL+E3BW1hVvsS2IK7h1DTMKo2OAuopAEY5YH68C6ZnahKd1KS+8b7
kxsR5T7qLgNam1SWNUwRRMOrdPweFDjvA15JulRXt0aUQpQjhUDm7J1rP87RiqPL
deSsMCB0EmES9JDrjqdOad0VuZAxAHy5I26I40OhqlBtOBE+YrJJC4oHmTHskIKs
ufisMXp9JdMAzoEs3Fb6Bhac9sKslR/Z7x2JrZ3Qd/Xwr7zmmD3O8Nb41BHJK09r
su2oAAsSuU55v7dFvUV018BJcD2A4U9r3Poi8nIijuoWzVoeN0whbRTvc83kQLab
ZkXX6PJkdPyt1qlO2QfPX8fxUgQ85TEE/URq2DM5/naVcsAnuU6jOEnRH6M=
-----END CERTIFICATE-----
-----BEGIN CERTIFICATE-----
MIIFPzCCAyegAwIBAgIUCqjR7QNkgwYla5JQD9M7IkpE8OowDQYJKoZIhvcNAQEL
BQAwLzEPMA0GA1UEAwwG5aCh5aGUMQ8wDQYDVQQKDAbloKHloZQxCzAJBgNVBAYT
AkNOMB4XDTIzMTIwNzA4MDExM1oXDTMzMTIwNDA4MDExM1owLzEPMA0GA1UEAwwG
5aCh5aGUMQ8wDQYDVQQKDAbloKHloZQxCzAJBgNVBAYTAkNOMIICIjANBgkqhkiG
9w0BAQEFAAOCAg8AMIICCgKCAgEAxXKhk3SkuFZ49Yk30dTY3bgR+OSLbVsq9S82
UDlHVL9x4dQHj8EH4viLj3aU2J2K8MsPQs9LyMYGKIKjOSjWbHMdpEqvGFD7XClW
J+Pb2/uj/D+VsiHtf9Y1Qk2F5AVQEnlGuDqT8JkvilFgXl7v9dX7yxGlnjyrEyZY
S3oJdx9LoVw5h2PGrj/H0n2epMtuf363sCYpwCKyAELtpbtgk0SbpuO0OopvEELH
pjWA47L5fEcsm4R6CrGFsFZ8tUJPV2VQ3M5vrNRljlIsO+OOrHMhYcs2YzR5o45L
msOZS6RPNZbh29+ki+fis6P+zGw5sIOLCC1/L5aRljkH5ls/ipTIs2PIkhrrVNWR
e+os0izb9JXMCjmH5KG3cbgi3Pouo/3MQjrqyrrF664VTm3jFojBlXdnR4n88znf
Hs1E1d/Rm31r+PWbAeDsgAnP1dTfMx5vPkUBV7x+36Gw8dVlXWH4dVzlcjSxZux+
qlCCFJzlxQ1WK5PlsvEyOpYll6bE6poeY9aNGSB8drvLa0cClfl3SYac1SPyu8v4
s07cbAAuetHyZ5pwDWNXCtwF85mFnc0F428DhBtVuVqcTINzFA3/wE1KjQy2eb5X
8M41DA0F0S2p9JJhgvsSIjn5sTlo+k5Qh82kZn1LYdprKg7dZ1f82nJRxgCs8SrP
qTv9s8ECAwEAAaNTMFEwHQYDVR0OBBYEFMoN1WD81wgm28enGvQ0bsKelULAMB8G
A1UdIwQYMBaAFMoN1WD81wgm28enGvQ0bsKelULAMA8GA1UdEwEB/wQFMAMBAf8w
DQYJKoZIhvcNAQELBQADggIBAA8Ih9HLrvOPPWhjNWKPVe/uzURjpqunm/wMOGvB
RttPeHMwTVcPBHhzj62txIFd6+eONgq4JJtMBWIf/OgH1ceRDvfRKEILn2TVr1mh
WYa9qcF9srUdKJ+QsTZP/NBrIL/Ya3jy9Q1N838pHLkQWveVCOS52tMAJRopd3Al
TsvF0t86QJWoge3EqIltTx7Tsx+BGiIgSVHdPAp3dtIa4L0lrrhQsCw3o0R3Zz6k
BPH7NxMHKbG4BPA1JD9ZG6HT3e4RGLF6T/3Jkgkt8i+Tvd2I12Kh5b5u1JehclHw
NNWPPS1tZB2iwcqC45atfwl/EbqiAE5DwCZs32cwrxmpMU8E4Dp9EwXXxmXMXlIm
iZagNOn2cdHqYKm7yTgKavQg40IpLmEZs693WxyTl9DhVACKUTWL/Np8dJCgSfre
KHhIm8e68McSbyGjpYpdYBggzitpqi0ix3ruOh811iUWLwiJSOxRhIFs81cmIZue
U1rONTiqxGF06ZUzdrsAcPqM8bNAXoXI0/TuGKVdvgyXVcK88vs9uQIQLK2vPyc9
TULrGcZdFVo7u1nADLj44Y7EWh0SmwkXRuR7gxJHd97axIkg3ZmVC9T0U3oojzOG
HnG3zpyTilwkzrLRbVnCLucRd1zsLTQQa0ZrScQX6WUXjnW8+qvuRa6bJV0Owgtj
grZx
-----END CERTIFICATE-----